target datalayout = "e-m:e-p270:32:32-p271:32:32-p272:64:64-i64:64-i128:128-f80:128-n8:16:32:64-S128"
target triple = "x86_64-pc-linux-gnu"

%struct.redisServer = type { i32, i64, ptr, ptr, ptr, i32, i32, i32, i32, i32, ptr, ptr, ptr, ptr, ptr, i32, i32, i32, i32, i64, i32, i32, i32, i32, ptr, i32, i32, [41 x i8], i32, i64, i32, i32, i32, ptr, ptr, i32, i32, i64, ptr, ptr, ptr, ptr, [2 x i32], i32, i32, i32, i32, i32, i32, [16 x ptr], i32, ptr, ptr, i32, [8 x %struct.connListener], i32, %struct.connListener, ptr, ptr, ptr, ptr, ptr, ptr, ptr, ptr, ptr, ptr, i32, ptr, i32, ptr, [3 x %struct.pause_event], [256 x i8], ptr, i64, i32, i32, [128 x i32], i32, i32, i64, i32, i32, i32, i32, i32, i64, i64, i64, i64, i64, i64, i64, i64, i64, i64, double, i64, i64, i64, i64, i64, i64, i64, i64, i64, i64, i64, i64, i64, i64, i64, i64, i64, i64, i64, i64, i64, double, i64, i64, i64, i64, i64, ptr, i64, i64, i64, %struct.malloc_stats, i64, i64, i64, i64, i64, i64, i64, i64, i64, i64, i64, i64, double, [4 x i64], i64, i64, i64, i64, [128 x i64], [128 x i64], i64, i64, [7 x %struct.anon], i64, i64, i64, i64, i64, i64, [4 x %struct.durationStats], i32, i32, i32, i32, i32, i32, i32, i32, i32, i32, i32, i32, i64, i32, i32, i32, i32, i64, i64, i32, i32, i32, i32, i32, ptr, [3 x %struct.clientBufferLimitsConfig], i32, i32, i32, ptr, i32, i32, i32, i32, i32, i32, ptr, ptr, i32, i32, i64, i64, i64, i64, i64, i32, i32, ptr, i32, i32, i64, i64, i64, i64, i64, i32, i32, i64, i32, i32, i32, i32, i32, i32, i32, i32, ptr, i32, i64, i64, i64, i64, i32, ptr, i32, ptr, i32, i32, i32, i64, i64, i64, i64, i32, i32, i32, i32, i32, i32, ptr, i32, i32, ptr, i32, i32, i32, [2 x i32], i32, %struct.redisOpArray, i32, ptr, i32, ptr, i32, i32, i32, i32, i32, i32, i32, [41 x i8], [41 x i8], i64, i64, i64, i64, i32, i32, ptr, i64, i64, %struct.replDataBuf, i64, i64, i32, i32, i32, i32, i32, i32, i32, i32, i32, i64, ptr, i64, ptr, ptr, ptr, i32, i32, ptr, ptr, i32, i32, i32, i64, i64, i64, i64, ptr, ptr, i32, ptr, i64, i32, i32, i32, i64, i32, i32, i32, i32, ptr, i32, i32, [41 x i8], i64, i32, ptr, i32, i32, i64, i64, i32, i32, i32, i32, i32, i64, [3 x i32], i32, i32, i32, [10 x i32], ptr, ptr, i32, i64, ptr, ptr, i32, i32, i32, i32, i64, i64, i64, i64, i64, i64, i64, i64, i64, i64, i32, i32, i64, i64, i32, i64, i64, i64, i64, i64, ptr, ptr, i32, ptr, i32, i32, i32, i32, i64, i64, ptr, ptr, i32, i32, i32, i32, i32, ptr, ptr, ptr, i32, i32, i32, i32, i32, i32, i32, i64, i32, i32, i64, i32, i32, i32, i32, i32, i32, i32, i64, ptr, ptr, i64, ptr, i32, %struct.aclInfo, i32, i64, i32, i32, i32, %struct.redisTLSContextConfig, ptr, ptr, ptr, ptr, ptr, i64, i32, ptr, i32, i32, i32, i64, i32, ptr }
%struct.connListener = type { [16 x i32], i32, ptr, i32, i32, ptr, ptr }
%struct.pause_event = type { i32, i64 }
%struct.malloc_stats = type { i64, i64, i64, i64, i64, i64, i64, i64, i64, i64, i64 }
%struct.anon = type { i64, i64, [16 x i64], i32 }
%struct.durationStats = type { i64, i64, i64 }
%struct.clientBufferLimitsConfig = type { i64, i64, i64 }
%struct.redisOpArray = type { ptr, i32, i32 }
%struct.replDataBuf = type { ptr, i64, i64, i64, i64 }
%struct.aclInfo = type { i64, i64, i64, i64 }
%struct.redisTLSContextConfig = type { ptr, ptr, ptr, ptr, ptr, ptr, ptr, ptr, ptr, ptr, ptr, ptr, i32, i32, i32, i32 }
%struct._rio = type { ptr, ptr, ptr, ptr, ptr, i64, i64, i64, i64, %union.anon }
%union.anon = type { %struct.anon.2 }
%struct.anon.2 = type { ptr, i64, ptr, i64, i64 }

@server = external global %struct.redisServer, align 8
@.str.41 = private unnamed_addr constant [8 x i8] c"unknown\00", align 1
@.str.162 = private unnamed_addr constant [2 x i8] c"w\00", align 1
@.str.163 = private unnamed_addr constant [75 x i8] c"Failed opening the temp RDB file %s (in server root dir %s) for saving: %s\00", align 1
@.str.164 = private unnamed_addr constant [11 x i8] c"rdbSaveRio\00", align 1
@.str.165 = private unnamed_addr constant [7 x i8] c"fflush\00", align 1
@.str.166 = private unnamed_addr constant [6 x i8] c"fsync\00", align 1
@.str.167 = private unnamed_addr constant [45 x i8] c"Unable to reclaim cache after saving RDB: %s\00", align 1
@.str.168 = private unnamed_addr constant [7 x i8] c"fclose\00", align 1
@.str.169 = private unnamed_addr constant [48 x i8] c"Write error while saving DB to the disk(%s): %s\00", align 1

; Function Attrs: nounwind uwtable
define internal i32 @rdbSaveInternal(i32 noundef %0, ptr noundef %1, ptr noundef %2, i32 noundef %3) #0 {
  %5 = alloca i32, align 4
  %6 = alloca i32, align 4
  %7 = alloca ptr, align 8
  %8 = alloca ptr, align 8
  %9 = alloca i32, align 4
  %10 = alloca [4096 x i8], align 16
  %11 = alloca %struct._rio, align 8
  %12 = alloca i32, align 4
  %13 = alloca i32, align 4
  %14 = alloca ptr, align 8
  %15 = alloca ptr, align 8
  %16 = alloca ptr, align 8
  %17 = alloca ptr, align 8
  %18 = alloca i32, align 4
  store i32 %0, ptr %6, align 4, !tbaa !5
  store ptr %1, ptr %7, align 8, !tbaa !9
  store ptr %2, ptr %8, align 8, !tbaa !179
  store i32 %3, ptr %9, align 4, !tbaa !5
  call void @llvm.lifetime.start.p0(i64 4096, ptr %10) #15
  call void @llvm.lifetime.start.p0(i64 112, ptr %11) #15
  call void @llvm.lifetime.start.p0(i64 4, ptr %12) #15
  store i32 0, ptr %12, align 4, !tbaa !5
  call void @llvm.lifetime.start.p0(i64 4, ptr %13) #15
  call void @llvm.lifetime.start.p0(i64 8, ptr %14) #15
  call void @llvm.lifetime.start.p0(i64 8, ptr %15) #15
  %19 = load ptr, ptr %7, align 8, !tbaa !9
  %20 = call noalias ptr @fopen64(ptr noundef %19, ptr noundef @.str.162)
  store ptr %20, ptr %15, align 8, !tbaa !208
  %21 = load ptr, ptr %15, align 8, !tbaa !208
  %22 = icmp ne ptr %21, null
  br i1 %22, label %49, label %23

23:                                               ; preds = %4
  %24 = call ptr @__errno_location() #19
  %25 = load i32, ptr %24, align 4, !tbaa !5
  store i32 %25, ptr %13, align 4, !tbaa !5
  call void @llvm.lifetime.start.p0(i64 8, ptr %16) #15
  %26 = call ptr @__errno_location() #19
  %27 = load i32, ptr %26, align 4, !tbaa !5
  %28 = call ptr @strerror(i32 noundef %27) #15
  store ptr %28, ptr %16, align 8, !tbaa !9
  call void @llvm.lifetime.start.p0(i64 8, ptr %17) #15
  %29 = getelementptr inbounds [4096 x i8], ptr %10, i64 0, i64 0
  %30 = call ptr @getcwd(ptr noundef %29, i64 noundef 4096) #15
  store ptr %30, ptr %17, align 8, !tbaa !9
  br label %31

31:                                               ; preds = %23
  %32 = load i32, ptr getelementptr inbounds nuw (%struct.redisServer, ptr @server, i32 0, i32 159), align 8, !tbaa !52
  %33 = icmp slt i32 3, %32
  br i1 %33, label %34, label %35

34:                                               ; preds = %31
  br label %46

35:                                               ; preds = %31
  %36 = load ptr, ptr %7, align 8, !tbaa !9
  %37 = load ptr, ptr %17, align 8, !tbaa !9
  %38 = icmp ne ptr %37, null
  br i1 %38, label %39, label %41

39:                                               ; preds = %35
  %40 = load ptr, ptr %17, align 8, !tbaa !9
  br label %42

41:                                               ; preds = %35
  br label %42

42:                                               ; preds = %41, %39
  %43 = phi ptr [ %40, %39 ], [ @.str.41, %41 ]
  %44 = load ptr, ptr %16, align 8, !tbaa !9
  call void (i32, ptr, ...) @_serverLog(i32 noundef 3, ptr noundef @.str.163, ptr noundef %36, ptr noundef %43, ptr noundef %44)
  br label %45

45:                                               ; preds = %42
  br label %46

46:                                               ; preds = %45, %34
  %47 = load i32, ptr %13, align 4, !tbaa !5
  %48 = call ptr @__errno_location() #19
  store i32 %47, ptr %48, align 4, !tbaa !5
  store i32 -1, ptr %5, align 4
  store i32 1, ptr %18, align 4
  call void @llvm.lifetime.end.p0(i64 8, ptr %17) #15
  call void @llvm.lifetime.end.p0(i64 8, ptr %16) #15
  br label %129

49:                                               ; preds = %4
  %50 = load ptr, ptr %15, align 8, !tbaa !208
  call void @rioInitWithFile(ptr noundef %11, ptr noundef %50)
  %51 = load i32, ptr getelementptr inbounds nuw (%struct.redisServer, ptr @server, i32 0, i32 218), align 4, !tbaa !210
  %52 = icmp ne i32 %51, 0
  br i1 %52, label %53, label %59

53:                                               ; preds = %49
  call void @rioSetAutoSync(ptr noundef %11, i64 noundef 4194304)
  %54 = load i32, ptr %9, align 4, !tbaa !5
  %55 = and i32 %54, 16
  %56 = icmp ne i32 %55, 0
  br i1 %56, label %58, label %57

57:                                               ; preds = %53
  call void @rioSetReclaimCache(ptr noundef %11, i32 noundef 1)
  br label %58

58:                                               ; preds = %57, %53
  br label %59

59:                                               ; preds = %58, %49
  %60 = load i32, ptr %6, align 4, !tbaa !5
  %61 = load i32, ptr %9, align 4, !tbaa !5
  %62 = load ptr, ptr %8, align 8, !tbaa !179
  %63 = call i32 @rdbSaveRio(i32 noundef %60, ptr noundef %11, ptr noundef %12, i32 noundef %61, ptr noundef %62)
  %64 = icmp eq i32 %63, -1
  br i1 %64, label %65, label %68

65:                                               ; preds = %59
  %66 = load i32, ptr %12, align 4, !tbaa !5
  %67 = call ptr @__errno_location() #19
  store i32 %66, ptr %67, align 4, !tbaa !5
  store ptr @.str.164, ptr %14, align 8, !tbaa !9
  br label %105

68:                                               ; preds = %59
  %69 = load ptr, ptr %15, align 8, !tbaa !208
  %70 = call i32 @fflush(ptr noundef %69)
  %71 = icmp ne i32 %70, 0
  br i1 %71, label %72, label %73

72:                                               ; preds = %68
  store ptr @.str.165, ptr %14, align 8, !tbaa !9
  br label %105

73:                                               ; preds = %68
  %74 = load ptr, ptr %15, align 8, !tbaa !208
  %75 = call i32 @fileno(ptr noundef %74) #15
  %76 = call i32 @fsync(i32 noundef %75)
  %77 = icmp ne i32 %76, 0
  br i1 %77, label %78, label %79

78:                                               ; preds = %73
  store ptr @.str.166, ptr %14, align 8, !tbaa !9
  br label %105

79:                                               ; preds = %73
  %80 = load i32, ptr %9, align 4, !tbaa !5
  %81 = and i32 %80, 16
  %82 = icmp ne i32 %81, 0
  br i1 %82, label %99, label %83

83:                                               ; preds = %79
  %84 = load ptr, ptr %15, align 8, !tbaa !208
  %85 = call i32 @fileno(ptr noundef %84) #15
  %86 = call i32 @reclaimFilePageCache(i32 noundef %85, i64 noundef 0, i64 noundef 0)
  %87 = icmp eq i32 %86, -1
  br i1 %87, label %88, label %99

88:                                               ; preds = %83
  br label %89

89:                                               ; preds = %88
  %90 = load i32, ptr getelementptr inbounds nuw (%struct.redisServer, ptr @server, i32 0, i32 159), align 8, !tbaa !52
  %91 = icmp slt i32 2, %90
  br i1 %91, label %92, label %93

92:                                               ; preds = %89
  br label %98

93:                                               ; preds = %89
  %94 = call ptr @__errno_location() #19
  %95 = load i32, ptr %94, align 4, !tbaa !5
  %96 = call ptr @strerror(i32 noundef %95) #15
  call void (i32, ptr, ...) @_serverLog(i32 noundef 2, ptr noundef @.str.167, ptr noundef %96)
  br label %97

97:                                               ; preds = %93
  br label %98

98:                                               ; preds = %97, %92
  br label %99

99:                                               ; preds = %98, %83, %79
  %100 = load ptr, ptr %15, align 8, !tbaa !208
  %101 = call i32 @fclose(ptr noundef %100)
  %102 = icmp ne i32 %101, 0
  br i1 %102, label %103, label %104

103:                                              ; preds = %99
  store ptr null, ptr %15, align 8, !tbaa !208
  store ptr @.str.168, ptr %14, align 8, !tbaa !9
  br label %105

104:                                              ; preds = %99
  store i32 0, ptr %5, align 4
  store i32 1, ptr %18, align 4
  br label %129

105:                                              ; preds = %103, %78, %72, %65
  %106 = call ptr @__errno_location() #19
  %107 = load i32, ptr %106, align 4, !tbaa !5
  store i32 %107, ptr %13, align 4, !tbaa !5
  br label %108

108:                                              ; preds = %105
  %109 = load i32, ptr getelementptr inbounds nuw (%struct.redisServer, ptr @server, i32 0, i32 159), align 8, !tbaa !52
  %110 = icmp slt i32 3, %109
  br i1 %110, label %111, label %112

111:                                              ; preds = %108
  br label %118

112:                                              ; preds = %108
  %113 = load ptr, ptr %14, align 8, !tbaa !9
  %114 = call ptr @__errno_location() #19
  %115 = load i32, ptr %114, align 4, !tbaa !5
  %116 = call ptr @strerror(i32 noundef %115) #15
  call void (i32, ptr, ...) @_serverLog(i32 noundef 3, ptr noundef @.str.169, ptr noundef %113, ptr noundef %116)
  br label %117

117:                                              ; preds = %112
  br label %118

118:                                              ; preds = %117, %111
  %119 = load ptr, ptr %15, align 8, !tbaa !208
  %120 = icmp ne ptr %119, null
  br i1 %120, label %121, label %124

121:                                              ; preds = %118
  %122 = load ptr, ptr %15, align 8, !tbaa !208
  %123 = call i32 @fclose(ptr noundef %122)
  br label %124

124:                                              ; preds = %121, %118
  %125 = load ptr, ptr %7, align 8, !tbaa !9
  %126 = call i32 @unlink(ptr noundef %125) #15
  %127 = load i32, ptr %13, align 4, !tbaa !5
  %128 = call ptr @__errno_location() #19
  store i32 %127, ptr %128, align 4, !tbaa !5
  store i32 -1, ptr %5, align 4
  store i32 1, ptr %18, align 4
  br label %129

129:                                              ; preds = %124, %104, %46
  call void @llvm.lifetime.end.p0(i64 8, ptr %15) #15
  call void @llvm.lifetime.end.p0(i64 8, ptr %14) #15
  call void @llvm.lifetime.end.p0(i64 4, ptr %13) #15
  call void @llvm.lifetime.end.p0(i64 4, ptr %12) #15
  call void @llvm.lifetime.end.p0(i64 112, ptr %11) #15
  call void @llvm.lifetime.end.p0(i64 4096, ptr %10) #15
  %130 = load i32, ptr %5, align 4
  ret i32 %130
}