; Function Attrs: nounwind uwtable
define internal fastcc range(i32 -1, 1) i32 @rdbSaveInternal(i32 noundef %0, ptr noundef %1, ptr noundef captures(address_is_null) %2, i32 noundef %3) unnamed_addr #0 {
  %5 = alloca [4096 x i8], align 16
  %6 = alloca %struct._rio, align 8
  %7 = alloca i32, align 4
  call void @llvm.lifetime.start.p0(i64 4096, ptr nonnull %5) #23
  call void @llvm.lifetime.start.p0(i64 112, ptr nonnull %6) #23
  call void @llvm.lifetime.start.p0(i64 4, ptr nonnull %7) #23
  store i32 0, ptr %7, align 4, !tbaa !51
  %8 = tail call noalias ptr @fopen64(ptr noundef %1, ptr noundef nonnull @.str.162)
  %.not = icmp eq ptr %8, null
  br i1 %.not, label %9, label %19

9:                                                ; preds = %4
  %10 = tail call ptr @__errno_location() #28
  %11 = load i32, ptr %10, align 4, !tbaa !51
  %12 = tail call ptr @strerror(i32 noundef %11) #23
  %13 = call ptr @getcwd(ptr noundef nonnull %5, i64 noundef 4096) #23
  %14 = load i32, ptr getelementptr inbounds nuw (i8, ptr @server, i64 6288), align 8, !tbaa !50
  %15 = icmp sgt i32 %14, 3
  br i1 %15, label %18, label %16

16:                                               ; preds = %9
  %.not26 = icmp eq ptr %13, null
  %17 = select i1 %.not26, ptr @.str.41, ptr %13
  call void (i32, ptr, ...) @_serverLog(i32 noundef 3, ptr noundef nonnull @.str.163, ptr noundef %1, ptr noundef nonnull %17, ptr noundef %12) #23
  br label %18

18:                                               ; preds = %9, %16
  store i32 %11, ptr %10, align 4, !tbaa !51
  br label %61

19:                                               ; preds = %4
  call void @rioInitWithFile(ptr noundef nonnull %6, ptr noundef nonnull %8) #23
  %20 = load i32, ptr getelementptr inbounds nuw (i8, ptr @server, i64 6676), align 4, !tbaa !169
  %.not27 = icmp eq i32 %20, 0
  br i1 %.not27, label %24, label %21

21:                                               ; preds = %19
  call void @rioSetAutoSync(ptr noundef nonnull %6, i64 noundef 4194304) #23
  %22 = and i32 %3, 16
  %.not28 = icmp eq i32 %22, 0
  br i1 %.not28, label %23, label %24

23:                                               ; preds = %21
  call void @rioSetReclaimCache(ptr noundef nonnull %6, i32 noundef 1) #23
  br label %24

24:                                               ; preds = %21, %23, %19
  %25 = call i32 @rdbSaveRio(i32 noundef %0, ptr noundef nonnull %6, ptr noundef nonnull %7, i32 noundef %3, ptr noundef %2)
  %26 = icmp eq i32 %25, -1
  br i1 %26, label %27, label %30

27:                                               ; preds = %24
  %28 = load i32, ptr %7, align 4, !tbaa !51
  %29 = tail call ptr @__errno_location() #28
  store i32 %28, ptr %29, align 4, !tbaa !51
  br label %49

30:                                               ; preds = %24
  %31 = call i32 @fflush(ptr noundef nonnull %8)
  %.not29 = icmp eq i32 %31, 0
  br i1 %.not29, label %32, label %49

32:                                               ; preds = %30
  %33 = call i32 @fileno(ptr noundef nonnull %8) #23
  %34 = call i32 @fsync(i32 noundef %33) #23
  %.not30 = icmp eq i32 %34, 0
  br i1 %.not30, label %35, label %49

35:                                               ; preds = %32
  %36 = and i32 %3, 16
  %.not31 = icmp eq i32 %36, 0
  br i1 %.not31, label %37, label %47

37:                                               ; preds = %35
  %38 = call i32 @fileno(ptr noundef nonnull %8) #23
  %39 = call i32 @reclaimFilePageCache(i32 noundef %38, i64 noundef 0, i64 noundef 0) #23
  %40 = icmp ne i32 %39, -1
  %41 = load i32, ptr getelementptr inbounds nuw (i8, ptr @server, i64 6288), align 8
  %42 = icmp sgt i32 %41, 2
  %or.cond = select i1 %40, i1 true, i1 %42
  br i1 %or.cond, label %47, label %43

43:                                               ; preds = %37
  %44 = tail call ptr @__errno_location() #28
  %45 = load i32, ptr %44, align 4, !tbaa !51
  %46 = call ptr @strerror(i32 noundef %45) #23
  call void (i32, ptr, ...) @_serverLog(i32 noundef 2, ptr noundef nonnull @.str.167, ptr noundef %46) #23
  br label %47

47:                                               ; preds = %43, %37, %35
  %48 = call i32 @fclose(ptr noundef nonnull %8)
  %.not32 = icmp eq i32 %48, 0
  br i1 %.not32, label %61, label %49

49:                                               ; preds = %47, %32, %30, %27
  %.024 = phi ptr [ @.str.164, %27 ], [ @.str.165, %30 ], [ @.str.166, %32 ], [ @.str.168, %47 ]
  %.023 = phi ptr [ %8, %27 ], [ %8, %30 ], [ %8, %32 ], [ null, %47 ]
  %50 = tail call ptr @__errno_location() #28
  %51 = load i32, ptr %50, align 4, !tbaa !51
  %52 = load i32, ptr getelementptr inbounds nuw (i8, ptr @server, i64 6288), align 8, !tbaa !50
  %53 = icmp sgt i32 %52, 3
  br i1 %53, label %56, label %54

54:                                               ; preds = %49
  %55 = call ptr @strerror(i32 noundef %51) #23
  call void (i32, ptr, ...) @_serverLog(i32 noundef 3, ptr noundef nonnull @.str.169, ptr noundef nonnull %.024, ptr noundef %55) #23
  br label %56

56:                                               ; preds = %49, %54
  %.not33 = icmp eq ptr %.023, null
  br i1 %.not33, label %59, label %57

57:                                               ; preds = %56
  %58 = call i32 @fclose(ptr noundef nonnull %.023)
  br label %59

59:                                               ; preds = %57, %56
  %60 = call i32 @unlink(ptr noundef %1) #23
  store i32 %51, ptr %50, align 4, !tbaa !51
  br label %61

61:                                               ; preds = %47, %59, %18
  %.0 = phi i32 [ -1, %59 ], [ -1, %18 ], [ 0, %47 ]
  call void @llvm.lifetime.end.p0(i64 4, ptr nonnull %7) #23
  call void @llvm.lifetime.end.p0(i64 112, ptr nonnull %6) #23
  call void @llvm.lifetime.end.p0(i64 4096, ptr nonnull %5) #23
  ret i32 %.0
}